target datalayout = "e-m:e-p270:32:32-p271:32:32-p272:64:64-i64:64-i128:128-f80:128-n8:16:32:64-S128"
target triple = "x86_64-pc-linux-gnu"

%struct.AVCodec = type { ptr, ptr, i32, i32, i32, i8, ptr, ptr, ptr, ptr, ptr, ptr, ptr, ptr }

@.str.57 = private unnamed_addr constant [5 x i8] c"h264\00", align 1

; Function Attrs: nounwind uwtable
define internal ptr @find_probe_decoder(ptr noundef %0, ptr noundef %1, i32 noundef %2) #0 {
  %4 = alloca ptr, align 8
  %5 = alloca ptr, align 8
  %6 = alloca ptr, align 8
  %7 = alloca i32, align 4
  %8 = alloca ptr, align 8
  %9 = alloca i32, align 4
  %10 = alloca ptr, align 8
  %11 = alloca ptr, align 8
  store ptr %0, ptr %5, align 8, !tbaa !46
  store ptr %1, ptr %6, align 8, !tbaa !4
  store i32 %2, ptr %7, align 4, !tbaa !50
  call void @llvm.lifetime.start.p0(i64 8, ptr %8) #13
  %12 = load i32, ptr %7, align 4, !tbaa !50
  %13 = icmp eq i32 %12, 27
  br i1 %13, label %14, label %16

14:                                               ; preds = %3
  %15 = call ptr @avcodec_find_decoder_by_name(ptr noundef @.str.57)
  store ptr %15, ptr %4, align 8
  store i32 1, ptr %9, align 4
  br label %61

16:                                               ; preds = %3
  %17 = load ptr, ptr %5, align 8, !tbaa !46
  %18 = load ptr, ptr %6, align 8, !tbaa !4
  %19 = load i32, ptr %7, align 4, !tbaa !50
  %20 = call ptr @ff_find_decoder(ptr noundef %17, ptr noundef %18, i32 noundef %19)
  store ptr %20, ptr %8, align 8, !tbaa !218
  %21 = load ptr, ptr %8, align 8, !tbaa !218
  %22 = icmp ne ptr %21, null
  br i1 %22, label %24, label %23

23:                                               ; preds = %16
  store ptr null, ptr %4, align 8
  store i32 1, ptr %9, align 4
  br label %61

24:                                               ; preds = %16
  %25 = load ptr, ptr %8, align 8, !tbaa !218
  %26 = getelementptr inbounds nuw %struct.AVCodec, ptr %25, i32 0, i32 4
  %27 = load i32, ptr %26, align 8, !tbaa !268
  %28 = and i32 %27, 131072
  %29 = icmp ne i32 %28, 0
  br i1 %29, label %30, label %59

30:                                               ; preds = %24
  call void @llvm.lifetime.start.p0(i64 8, ptr %10) #13
  store ptr null, ptr %10, align 8, !tbaa !218
  call void @llvm.lifetime.start.p0(i64 8, ptr %11) #13
  store ptr null, ptr %11, align 8, !tbaa !272
  br label %31

31:                                               ; preds = %54, %30
  %32 = call ptr @av_codec_iterate(ptr noundef %11)
  store ptr %32, ptr %10, align 8, !tbaa !218
  %33 = icmp ne ptr %32, null
  br i1 %33, label %34, label %55

34:                                               ; preds = %31
  %35 = load ptr, ptr %10, align 8, !tbaa !218
  %36 = getelementptr inbounds nuw %struct.AVCodec, ptr %35, i32 0, i32 3
  %37 = load i32, ptr %36, align 4, !tbaa !273
  %38 = load ptr, ptr %8, align 8, !tbaa !218
  %39 = getelementptr inbounds nuw %struct.AVCodec, ptr %38, i32 0, i32 3
  %40 = load i32, ptr %39, align 4, !tbaa !273
  %41 = icmp eq i32 %37, %40
  br i1 %41, label %42, label %54

42:                                               ; preds = %34
  %43 = load ptr, ptr %10, align 8, !tbaa !218
  %44 = call i32 @av_codec_is_decoder(ptr noundef %43)
  %45 = icmp ne i32 %44, 0
  br i1 %45, label %46, label %54

46:                                               ; preds = %42
  %47 = load ptr, ptr %10, align 8, !tbaa !218
  %48 = getelementptr inbounds nuw %struct.AVCodec, ptr %47, i32 0, i32 4
  %49 = load i32, ptr %48, align 8, !tbaa !268
  %50 = and i32 %49, 131584
  %51 = icmp ne i32 %50, 0
  br i1 %51, label %54, label %52

52:                                               ; preds = %46
  %53 = load ptr, ptr %10, align 8, !tbaa !218
  store ptr %53, ptr %4, align 8
  store i32 1, ptr %9, align 4
  br label %56

54:                                               ; preds = %46, %42, %34
  br label %31, !llvm.loop !274

55:                                               ; preds = %31
  store i32 0, ptr %9, align 4
  br label %56

56:                                               ; preds = %55, %52
  call void @llvm.lifetime.end.p0(i64 8, ptr %11) #13
  call void @llvm.lifetime.end.p0(i64 8, ptr %10) #13
  %57 = load i32, ptr %9, align 4
  switch i32 %57, label %61 [
    i32 0, label %58
  ]

58:                                               ; preds = %56
  br label %59

59:                                               ; preds = %58, %24
  %60 = load ptr, ptr %8, align 8, !tbaa !218
  store ptr %60, ptr %4, align 8
  store i32 1, ptr %9, align 4
  br label %61

61:                                               ; preds = %59, %56, %23, %14
  call void @llvm.lifetime.end.p0(i64 8, ptr %8) #13
  %62 = load ptr, ptr %4, align 8
  ret ptr %62
}