; Function Attrs: nounwind uwtable
define internal fastcc ptr @find_probe_decoder(ptr noundef %0, ptr noundef %1, i32 noundef %2) unnamed_addr #1 {
  %4 = alloca ptr, align 8
  %5 = icmp eq i32 %2, 27
  br i1 %5, label %6, label %8

6:                                                ; preds = %3
  %7 = tail call ptr @avcodec_find_decoder_by_name(ptr noundef nonnull @.str.57) #15
  br label %32

8:                                                ; preds = %3
  %9 = tail call ptr @ff_find_decoder(ptr noundef %0, ptr noundef %1, i32 noundef %2) #15
  %.not = icmp eq ptr %9, null
  br i1 %.not, label %32, label %10

10:                                               ; preds = %8
  %11 = getelementptr inbounds nuw i8, ptr %9, i64 24
  %12 = load i32, ptr %11, align 8, !tbaa !293
  %13 = and i32 %12, 131072
  %.not17 = icmp eq i32 %13, 0
  br i1 %.not17, label %32, label %14

14:                                               ; preds = %10
  call void @llvm.lifetime.start.p0(i64 8, ptr nonnull %4) #15
  store ptr null, ptr %4, align 8, !tbaa !297
  %15 = call ptr @av_codec_iterate(ptr noundef nonnull %4) #15
  %.not1822 = icmp eq ptr %15, null
  br i1 %.not1822, label %.critedge, label %.lr.ph

.lr.ph:                                           ; preds = %14
  %16 = getelementptr inbounds nuw i8, ptr %9, i64 20
  br label %17

17:                                               ; preds = %.lr.ph, %29
  %18 = phi ptr [ %15, %.lr.ph ], [ %30, %29 ]
  %19 = getelementptr inbounds nuw i8, ptr %18, i64 20
  %20 = load i32, ptr %19, align 4, !tbaa !298
  %21 = load i32, ptr %16, align 4, !tbaa !298
  %22 = icmp eq i32 %20, %21
  br i1 %22, label %23, label %29

23:                                               ; preds = %17
  %24 = call i32 @av_codec_is_decoder(ptr noundef nonnull %18) #15
  %.not19 = icmp eq i32 %24, 0
  br i1 %.not19, label %29, label %25

25:                                               ; preds = %23
  %26 = getelementptr inbounds nuw i8, ptr %18, i64 24
  %27 = load i32, ptr %26, align 8, !tbaa !293
  %28 = and i32 %27, 131584
  %.not20 = icmp eq i32 %28, 0
  br i1 %.not20, label %31, label %29

29:                                               ; preds = %25, %23, %17
  %30 = call ptr @av_codec_iterate(ptr noundef nonnull %4) #15
  %.not18 = icmp eq ptr %30, null
  br i1 %.not18, label %.critedge, label %17, !llvm.loop !299

31:                                               ; preds = %25
  call void @llvm.lifetime.end.p0(i64 8, ptr nonnull %4) #15
  br label %32

.critedge:                                        ; preds = %29, %14
  call void @llvm.lifetime.end.p0(i64 8, ptr nonnull %4) #15
  br label %32

32:                                               ; preds = %10, %.critedge, %31, %8, %6
  %.013 = phi ptr [ %7, %6 ], [ %18, %31 ], [ null, %8 ], [ %9, %.critedge ], [ %9, %10 ]
  ret ptr %.013
}